; Function Attrs: mustprogress uwtable
define void @_ZN15MainApplication13emitAppSignalENS_9AppSignalE(ptr noundef nonnull align 8 dereferenceable(216) %0, i32 noundef %1) local_unnamed_addr #3 align 2 personality ptr @__gxx_personality_v0 {
  %3 = alloca %class.QString, align 16
  %4 = alloca %class.QString, align 16
  switch i32 %1, label %_ZN7QStringD2Ev.exit [
    i32 2, label %5
    i32 0, label %6
    i32 3, label %7
    i32 5, label %8
    i32 6, label %9
    i32 7, label %10
    i32 9, label %11
    i32 8, label %12
    i32 10, label %13
    i32 11, label %14
    i32 12, label %30
    i32 4, label %31
    i32 1, label %32
    i32 13, label %33
  ]

5:                                                ; preds = %2
  tail call void @_ZN15MainApplication14columnsChangedEv(ptr noundef nonnull align 8 dereferenceable(216) %0)
  br label %_ZN7QStringD2Ev.exit

6:                                                ; preds = %2
  tail call void @_ZN15MainApplication24captureFilterListChangedEv(ptr noundef nonnull align 8 dereferenceable(216) %0)
  br label %_ZN7QStringD2Ev.exit

7:                                                ; preds = %2
  tail call void @_ZN15MainApplication24displayFilterListChangedEv(ptr noundef nonnull align 8 dereferenceable(216) %0)
  br label %_ZN7QStringD2Ev.exit

8:                                                ; preds = %2
  tail call void @_ZN15MainApplication24filterExpressionsChangedEv(ptr noundef nonnull align 8 dereferenceable(216) %0)
  br label %_ZN7QStringD2Ev.exit

9:                                                ; preds = %2
  tail call void @_ZN15MainApplication25localInterfaceListChangedEv(ptr noundef nonnull align 8 dereferenceable(216) %0)
  br label %_ZN7QStringD2Ev.exit

10:                                               ; preds = %2
  tail call void @_ZN15MainApplication24addressResolutionChangedEv(ptr noundef nonnull align 8 dereferenceable(216) %0)
  br label %_ZN7QStringD2Ev.exit

11:                                               ; preds = %2
  tail call void @_ZN15MainApplication18preferencesChangedEv(ptr noundef nonnull align 8 dereferenceable(216) %0)
  br label %_ZN7QStringD2Ev.exit

12:                                               ; preds = %2
  tail call void @_ZN15MainApplication23packetDissectionChangedEv(ptr noundef nonnull align 8 dereferenceable(216) %0)
  br label %_ZN7QStringD2Ev.exit

13:                                               ; preds = %2
  tail call void @_ZN15MainApplication15profileChangingEv(ptr noundef nonnull align 8 dereferenceable(216) %0)
  br label %_ZN7QStringD2Ev.exit

14:                                               ; preds = %2
  call void @llvm.lifetime.start.p0(i64 24, ptr nonnull %3)
  call void @_ZN7QString8fromUtf8E14QByteArrayView(ptr dead_on_unwind nonnull writable sret(%class.QString) align 8 %3, i64 0, ptr null)
  %15 = load <2 x ptr>, ptr %3, align 16
  store <2 x ptr> %15, ptr %4, align 16
  %16 = getelementptr inbounds i8, ptr %4, i64 16
  %17 = getelementptr inbounds i8, ptr %3, i64 16
  %18 = load i64, ptr %17, align 16
  store i64 %18, ptr %16, align 16
  call void @llvm.lifetime.end.p0(i64 24, ptr nonnull %3)
  invoke void @_ZN15MainApplication25updateRecentCaptureStatusERK7QStringxb(ptr noundef nonnull align 8 dereferenceable(216) %0, ptr noundef nonnull align 8 dereferenceable(24) %4, i64 noundef 0, i1 noundef zeroext false)
          to label %19 unwind label %24

19:                                               ; preds = %14
  %20 = load ptr, ptr %4, align 16
  %.not.i.i.i = icmp eq ptr %20, null
  br i1 %.not.i.i.i, label %_ZN7QStringD2Ev.exit, label %_ZN17QArrayDataPointerIDsE5derefEv.exit.i.i

_ZN17QArrayDataPointerIDsE5derefEv.exit.i.i:      ; preds = %19
  %21 = atomicrmw sub ptr %20, i32 1 seq_cst, align 4
  %.not.i.i = icmp eq i32 %21, 1
  br i1 %.not.i.i, label %22, label %_ZN7QStringD2Ev.exit

22:                                               ; preds = %_ZN17QArrayDataPointerIDsE5derefEv.exit.i.i
  %23 = load ptr, ptr %4, align 16
  call void @_ZN10QArrayData10deallocateEPS_xx(ptr noundef %23, i64 noundef 2, i64 noundef 8) #26
  br label %_ZN7QStringD2Ev.exit

24:                                               ; preds = %14
  %25 = landingpad { ptr, i32 }
          cleanup
  %26 = load ptr, ptr %4, align 16
  %.not.i.i.i3 = icmp eq ptr %26, null
  br i1 %.not.i.i.i3, label %_ZN7QStringD2Ev.exit6, label %_ZN17QArrayDataPointerIDsE5derefEv.exit.i.i4

_ZN17QArrayDataPointerIDsE5derefEv.exit.i.i4:     ; preds = %24
  %27 = atomicrmw sub ptr %26, i32 1 seq_cst, align 4
  %.not.i.i5 = icmp eq i32 %27, 1
  br i1 %.not.i.i5, label %28, label %_ZN7QStringD2Ev.exit6

28:                                               ; preds = %_ZN17QArrayDataPointerIDsE5derefEv.exit.i.i4
  %29 = load ptr, ptr %4, align 16
  call void @_ZN10QArrayData10deallocateEPS_xx(ptr noundef %29, i64 noundef 2, i64 noundef 8) #26
  br label %_ZN7QStringD2Ev.exit6

_ZN7QStringD2Ev.exit6:                            ; preds = %24, %_ZN17QArrayDataPointerIDsE5derefEv.exit.i.i4, %28
  resume { ptr, i32 } %25

30:                                               ; preds = %2
  tail call void @_ZN15MainApplication21recentPreferencesReadEv(ptr noundef nonnull align 8 dereferenceable(216) %0)
  br label %_ZN7QStringD2Ev.exit

31:                                               ; preds = %2
  tail call void @_ZN15MainApplication13fieldsChangedEv(ptr noundef nonnull align 8 dereferenceable(216) %0)
  br label %_ZN7QStringD2Ev.exit

32:                                               ; preds = %2
  tail call void @_ZN15MainApplication13colorsChangedEv(ptr noundef nonnull align 8 dereferenceable(216) %0)
  br label %_ZN7QStringD2Ev.exit

33:                                               ; preds = %2
  tail call void @_ZN15MainApplication16freezePacketListEb(ptr noundef nonnull align 8 dereferenceable(216) %0, i1 noundef zeroext false)
  br label %_ZN7QStringD2Ev.exit

_ZN7QStringD2Ev.exit:                             ; preds = %22, %_ZN17QArrayDataPointerIDsE5derefEv.exit.i.i, %19, %2, %33, %32, %31, %30, %13, %12, %11, %10, %9, %8, %7, %6, %5
  ret void
}